; Function Attrs: mustprogress nofree norecurse nosync nounwind sspstrong willreturn memory(argmem: write) uwtable
define noundef i32 @rb_Digest_RMD160_Init(ptr noundef writeonly captures(none) initializes((0, 28), (92, 96)) %0) local_unnamed_addr #1 {
  store i32 1732584193, ptr %0, align 4, !tbaa !6
  %2 = getelementptr inbounds nuw i8, ptr %0, i64 4
  store i32 -271733879, ptr %2, align 4, !tbaa !6
  %3 = getelementptr inbounds nuw i8, ptr %0, i64 8
  store i32 -1732584194, ptr %3, align 4, !tbaa !6
  %4 = getelementptr inbounds nuw i8, ptr %0, i64 12
  store i32 271733878, ptr %4, align 4, !tbaa !6
  %5 = getelementptr inbounds nuw i8, ptr %0, i64 16
  store i32 -1009589776, ptr %5, align 4, !tbaa !6
  %6 = getelementptr inbounds nuw i8, ptr %0, i64 20
  %7 = getelementptr inbounds nuw i8, ptr %0, i64 24
  store i32 0, ptr %7, align 4, !tbaa !6
  store i32 0, ptr %6, align 4, !tbaa !6
  %8 = getelementptr inbounds nuw i8, ptr %0, i64 92
  store i32 0, ptr %8, align 4, !tbaa !10
  ret i32 1
}